target datalayout = "e-m:e-p270:32:32-p271:32:32-p272:64:64-i64:64-i128:128-f80:128-n8:16:32:64-S128"
target triple = "x86_64-pc-linux-gnu"

%struct.EState = type { i32, i32, ptr, ptr, ptr, i32, ptr, ptr, ptr, ptr, ptr, ptr, ptr, ptr, ptr, ptr, i32, ptr, ptr, ptr, ptr, ptr, ptr, ptr, ptr, ptr, ptr, i64, i64, i32, i32, i8, ptr, ptr, ptr, ptr, ptr, i8, i32, i32, ptr, i32, ptr, ptr, ptr, ptr }
%struct.Node = type { i32 }
%struct.ExprContext = type { i32, ptr, ptr, ptr, ptr, ptr, ptr, ptr, ptr, ptr, i64, i8, i64, i8, ptr, ptr, ptr, ptr }
%struct.ResultRelInfo = type { i32, i32, ptr, i32, ptr, ptr, i16, ptr, i8, ptr, ptr, ptr, i8, i8, ptr, ptr, ptr, ptr, ptr, ptr, ptr, ptr, ptr, ptr, i8, i32, i32, i32, ptr, ptr, ptr, ptr, ptr, ptr, ptr, i32, i32, ptr, ptr, ptr, ptr, [3 x ptr], ptr, ptr, ptr, i8, ptr, i8, ptr, ptr, ptr, ptr }

@CurrentMemoryContext = external global ptr, align 8
@.str.1 = private unnamed_addr constant [12 x i8] c"ExprContext\00", align 1

; Function Attrs: inlinehint nounwind uwtable
define internal ptr @newNode(i64 noundef %0, i32 noundef %1) #3 {
  %3 = alloca i64, align 8
  %4 = alloca i32, align 4
  %5 = alloca ptr, align 8
  store i64 %0, ptr %3, align 8
  store i32 %1, ptr %4, align 4
  call void @llvm.lifetime.start.p0(i64 8, ptr %5) #6
  %6 = load i64, ptr %3, align 8
  %7 = call ptr @palloc0(i64 noundef %6)
  store ptr %7, ptr %5, align 8
  %8 = load i32, ptr %4, align 4
  %9 = load ptr, ptr %5, align 8
  %10 = getelementptr inbounds nuw %struct.Node, ptr %9, i32 0, i32 0
  store i32 %8, ptr %10, align 4
  %11 = load ptr, ptr %5, align 8
  call void @llvm.lifetime.end.p0(i64 8, ptr %5) #6
  ret ptr %11
}

; Function Attrs: nounwind uwtable
define internal ptr @CreateExprContextInternal(ptr noundef %0, i64 noundef %1, i64 noundef %2, i64 noundef %3) #0 {
  %5 = alloca ptr, align 8
  %6 = alloca i64, align 8
  %7 = alloca i64, align 8
  %8 = alloca i64, align 8
  %9 = alloca ptr, align 8
  %10 = alloca ptr, align 8
  %11 = alloca i32, align 4
  store ptr %0, ptr %5, align 8
  store i64 %1, ptr %6, align 8
  store i64 %2, ptr %7, align 8
  store i64 %3, ptr %8, align 8
  call void @llvm.lifetime.start.p0(i64 8, ptr %9) #6
  call void @llvm.lifetime.start.p0(i64 8, ptr %10) #6
  %12 = load ptr, ptr %5, align 8
  %13 = getelementptr inbounds nuw %struct.EState, ptr %12, i32 0, i32 25
  %14 = load ptr, ptr %13, align 8
  %15 = call ptr @MemoryContextSwitchTo(ptr noundef %14)
  store ptr %15, ptr %10, align 8
  %16 = call ptr @newNode(i64 noundef 144, i32 noundef 381)
  store ptr %16, ptr %9, align 8
  %17 = load ptr, ptr %9, align 8
  %18 = getelementptr inbounds nuw %struct.ExprContext, ptr %17, i32 0, i32 1
  store ptr null, ptr %18, align 8
  %19 = load ptr, ptr %9, align 8
  %20 = getelementptr inbounds nuw %struct.ExprContext, ptr %19, i32 0, i32 2
  store ptr null, ptr %20, align 8
  %21 = load ptr, ptr %9, align 8
  %22 = getelementptr inbounds nuw %struct.ExprContext, ptr %21, i32 0, i32 3
  store ptr null, ptr %22, align 8
  %23 = load ptr, ptr %5, align 8
  %24 = getelementptr inbounds nuw %struct.EState, ptr %23, i32 0, i32 25
  %25 = load ptr, ptr %24, align 8
  %26 = load ptr, ptr %9, align 8
  %27 = getelementptr inbounds nuw %struct.ExprContext, ptr %26, i32 0, i32 4
  store ptr %25, ptr %27, align 8
  br label %28

28:                                               ; preds = %4
  br label %29

29:                                               ; preds = %28
  br label %30

30:                                               ; preds = %29
  store i32 1, ptr %11, align 4
  %31 = load ptr, ptr %5, align 8
  %32 = getelementptr inbounds nuw %struct.EState, ptr %31, i32 0, i32 25
  %33 = load ptr, ptr %32, align 8
  %34 = load i64, ptr %6, align 8
  %35 = load i64, ptr %7, align 8
  %36 = load i64, ptr %8, align 8
  %37 = call ptr @AllocSetContextCreateInternal(ptr noundef %33, ptr noundef @.str.1, i64 noundef %34, i64 noundef %35, i64 noundef %36)
  %38 = load ptr, ptr %9, align 8
  %39 = getelementptr inbounds nuw %struct.ExprContext, ptr %38, i32 0, i32 5
  store ptr %37, ptr %39, align 8
  %40 = load ptr, ptr %5, align 8
  %41 = getelementptr inbounds nuw %struct.EState, ptr %40, i32 0, i32 23
  %42 = load ptr, ptr %41, align 8
  %43 = load ptr, ptr %9, align 8
  %44 = getelementptr inbounds nuw %struct.ExprContext, ptr %43, i32 0, i32 6
  store ptr %42, ptr %44, align 8
  %45 = load ptr, ptr %5, align 8
  %46 = getelementptr inbounds nuw %struct.EState, ptr %45, i32 0, i32 22
  %47 = load ptr, ptr %46, align 8
  %48 = load ptr, ptr %9, align 8
  %49 = getelementptr inbounds nuw %struct.ExprContext, ptr %48, i32 0, i32 7
  store ptr %47, ptr %49, align 8
  %50 = load ptr, ptr %9, align 8
  %51 = getelementptr inbounds nuw %struct.ExprContext, ptr %50, i32 0, i32 8
  store ptr null, ptr %51, align 8
  %52 = load ptr, ptr %9, align 8
  %53 = getelementptr inbounds nuw %struct.ExprContext, ptr %52, i32 0, i32 9
  store ptr null, ptr %53, align 8
  %54 = load ptr, ptr %9, align 8
  %55 = getelementptr inbounds nuw %struct.ExprContext, ptr %54, i32 0, i32 10
  store i64 0, ptr %55, align 8
  %56 = load ptr, ptr %9, align 8
  %57 = getelementptr inbounds nuw %struct.ExprContext, ptr %56, i32 0, i32 11
  store i8 1, ptr %57, align 8
  %58 = load ptr, ptr %9, align 8
  %59 = getelementptr inbounds nuw %struct.ExprContext, ptr %58, i32 0, i32 12
  store i64 0, ptr %59, align 8
  %60 = load ptr, ptr %9, align 8
  %61 = getelementptr inbounds nuw %struct.ExprContext, ptr %60, i32 0, i32 13
  store i8 1, ptr %61, align 8
  %62 = load ptr, ptr %5, align 8
  %63 = load ptr, ptr %9, align 8
  %64 = getelementptr inbounds nuw %struct.ExprContext, ptr %63, i32 0, i32 16
  store ptr %62, ptr %64, align 8
  %65 = load ptr, ptr %9, align 8
  %66 = getelementptr inbounds nuw %struct.ExprContext, ptr %65, i32 0, i32 17
  store ptr null, ptr %66, align 8
  %67 = load ptr, ptr %9, align 8
  %68 = load ptr, ptr %5, align 8
  %69 = getelementptr inbounds nuw %struct.EState, ptr %68, i32 0, i32 32
  %70 = load ptr, ptr %69, align 8
  %71 = call ptr @lcons(ptr noundef %67, ptr noundef %70)
  %72 = load ptr, ptr %5, align 8
  %73 = getelementptr inbounds nuw %struct.EState, ptr %72, i32 0, i32 32
  store ptr %71, ptr %73, align 8
  %74 = load ptr, ptr %10, align 8
  %75 = call ptr @MemoryContextSwitchTo(ptr noundef %74)
  %76 = load ptr, ptr %9, align 8
  call void @llvm.lifetime.end.p0(i64 8, ptr %10) #6
  call void @llvm.lifetime.end.p0(i64 8, ptr %9) #6
  ret ptr %76
}

; Function Attrs: nounwind uwtable
define dso_local ptr @CreateExprContext(ptr noundef %0) #0 {
  %2 = alloca ptr, align 8
  store ptr %0, ptr %2, align 8
  %3 = load ptr, ptr %2, align 8
  %4 = call ptr @CreateExprContextInternal(ptr noundef %3, i64 noundef 0, i64 noundef 8192, i64 noundef 8388608)
  ret ptr %4
}

; Function Attrs: nounwind uwtable
define dso_local ptr @ExecGetExtraUpdatedCols(ptr noundef %0, ptr noundef %1) #0 {
  %3 = alloca ptr, align 8
  %4 = alloca ptr, align 8
  store ptr %0, ptr %3, align 8
  store ptr %1, ptr %4, align 8
  %5 = load ptr, ptr %3, align 8
  %6 = getelementptr inbounds nuw %struct.ResultRelInfo, ptr %5, i32 0, i32 8
  %7 = load i8, ptr %6, align 8, !range !6, !noundef !7
  %8 = trunc i8 %7 to i1
  br i1 %8, label %12, label %9

9:                                                ; preds = %2
  %10 = load ptr, ptr %3, align 8
  %11 = load ptr, ptr %4, align 8
  call void @ExecInitGenerated(ptr noundef %10, ptr noundef %11, i32 noundef 2)
  br label %12

12:                                               ; preds = %9, %2
  %13 = load ptr, ptr %3, align 8
  %14 = getelementptr inbounds nuw %struct.ResultRelInfo, ptr %13, i32 0, i32 7
  %15 = load ptr, ptr %14, align 8
  ret ptr %15
}

; Function Attrs: inlinehint nounwind uwtable
define internal ptr @MemoryContextSwitchTo(ptr noundef %0) #3 {
  %2 = alloca ptr, align 8
  %3 = alloca ptr, align 8
  store ptr %0, ptr %2, align 8
  call void @llvm.lifetime.start.p0(i64 8, ptr %3) #6
  %4 = load ptr, ptr @CurrentMemoryContext, align 8
  store ptr %4, ptr %3, align 8
  %5 = load ptr, ptr %2, align 8
  store ptr %5, ptr @CurrentMemoryContext, align 8
  %6 = load ptr, ptr %3, align 8
  call void @llvm.lifetime.end.p0(i64 8, ptr %3) #6
  ret ptr %6
}

; Function Attrs: nounwind uwtable
define dso_local ptr @MakePerTupleExprContext(ptr noundef %0) #0 {
  %2 = alloca ptr, align 8
  store ptr %0, ptr %2, align 8
  %3 = load ptr, ptr %2, align 8
  %4 = getelementptr inbounds nuw %struct.EState, ptr %3, i32 0, i32 35
  %5 = load ptr, ptr %4, align 8
  %6 = icmp eq ptr %5, null
  br i1 %6, label %7, label %12

7:                                                ; preds = %1
  %8 = load ptr, ptr %2, align 8
  %9 = call ptr @CreateExprContext(ptr noundef %8)
  %10 = load ptr, ptr %2, align 8
  %11 = getelementptr inbounds nuw %struct.EState, ptr %10, i32 0, i32 35
  store ptr %9, ptr %11, align 8
  br label %12

12:                                               ; preds = %7, %1
  %13 = load ptr, ptr %2, align 8
  %14 = getelementptr inbounds nuw %struct.EState, ptr %13, i32 0, i32 35
  %15 = load ptr, ptr %14, align 8
  ret ptr %15
}

; Function Attrs: nounwind uwtable
define dso_local ptr @ExecGetAllUpdatedCols(ptr noundef %0, ptr noundef %1) #0 {
  %3 = alloca ptr, align 8
  %4 = alloca ptr, align 8
  %5 = alloca ptr, align 8
  %6 = alloca ptr, align 8
  store ptr %0, ptr %3, align 8
  store ptr %1, ptr %4, align 8
  call void @llvm.lifetime.start.p0(i64 8, ptr %5) #6
  call void @llvm.lifetime.start.p0(i64 8, ptr %6) #6
  %7 = load ptr, ptr %4, align 8
  %8 = getelementptr inbounds nuw %struct.EState, ptr %7, i32 0, i32 35
  %9 = load ptr, ptr %8, align 8
  %10 = icmp ne ptr %9, null
  br i1 %10, label %11, label %15

11:                                               ; preds = %2
  %12 = load ptr, ptr %4, align 8
  %13 = getelementptr inbounds nuw %struct.EState, ptr %12, i32 0, i32 35
  %14 = load ptr, ptr %13, align 8
  br label %18

15:                                               ; preds = %2
  %16 = load ptr, ptr %4, align 8
  %17 = call ptr @MakePerTupleExprContext(ptr noundef %16)
  br label %18

18:                                               ; preds = %15, %11
  %19 = phi ptr [ %14, %11 ], [ %17, %15 ]
  %20 = getelementptr inbounds nuw %struct.ExprContext, ptr %19, i32 0, i32 5
  %21 = load ptr, ptr %20, align 8
  %22 = call ptr @MemoryContextSwitchTo(ptr noundef %21)
  store ptr %22, ptr %6, align 8
  %23 = load ptr, ptr %3, align 8
  %24 = load ptr, ptr %4, align 8
  %25 = call ptr @ExecGetUpdatedCols(ptr noundef %23, ptr noundef %24)
  %26 = load ptr, ptr %3, align 8
  %27 = load ptr, ptr %4, align 8
  %28 = call ptr @ExecGetExtraUpdatedCols(ptr noundef %26, ptr noundef %27)
  %29 = call ptr @bms_union(ptr noundef %25, ptr noundef %28)
  store ptr %29, ptr %5, align 8
  %30 = load ptr, ptr %6, align 8
  %31 = call ptr @MemoryContextSwitchTo(ptr noundef %30)
  %32 = load ptr, ptr %5, align 8
  call void @llvm.lifetime.end.p0(i64 8, ptr %6) #6
  call void @llvm.lifetime.end.p0(i64 8, ptr %5) #6
  ret ptr %32
}