; Function Attrs: nounwind uwtable
define dso_local ptr @ExecGetAllUpdatedCols(ptr noundef %0, ptr noundef %1) local_unnamed_addr #0 {
  %3 = getelementptr inbounds nuw i8, ptr %1, i64 264
  %4 = load ptr, ptr %3, align 8
  %.not = icmp eq ptr %4, null
  %.pre = load ptr, ptr @CurrentMemoryContext, align 8
  br i1 %.not, label %MakePerTupleExprContext.exit, label %28

MakePerTupleExprContext.exit:                     ; preds = %2
  %5 = getelementptr inbounds nuw i8, ptr %1, i64 192
  %6 = load ptr, ptr %5, align 8
  store ptr %6, ptr @CurrentMemoryContext, align 8
  %7 = tail call noundef ptr @palloc0(i64 noundef 144) #12
  store i32 381, ptr %7, align 4
  %8 = getelementptr inbounds nuw i8, ptr %7, i64 8
  tail call void @llvm.memset.p0.i64(ptr noundef nonnull align 8 dereferenceable(24) %8, i8 0, i64 24, i1 false)
  %9 = load ptr, ptr %5, align 8
  %10 = getelementptr inbounds nuw i8, ptr %7, i64 32
  store ptr %9, ptr %10, align 8
  %11 = tail call ptr @AllocSetContextCreateInternal(ptr noundef %9, ptr noundef nonnull @.str.1, i64 noundef 0, i64 noundef 8192, i64 noundef 8388608) #12
  %12 = getelementptr inbounds nuw i8, ptr %7, i64 40
  store ptr %11, ptr %12, align 8
  %13 = getelementptr inbounds nuw i8, ptr %1, i64 176
  %14 = load ptr, ptr %13, align 8
  %15 = getelementptr inbounds nuw i8, ptr %7, i64 48
  store ptr %14, ptr %15, align 8
  %16 = getelementptr inbounds nuw i8, ptr %1, i64 168
  %17 = load ptr, ptr %16, align 8
  %18 = getelementptr inbounds nuw i8, ptr %7, i64 56
  store ptr %17, ptr %18, align 8
  %19 = getelementptr inbounds nuw i8, ptr %7, i64 64
  %20 = getelementptr inbounds nuw i8, ptr %7, i64 88
  tail call void @llvm.memset.p0.i64(ptr noundef nonnull align 8 dereferenceable(24) %19, i8 0, i64 24, i1 false)
  store i8 1, ptr %20, align 8
  %21 = getelementptr inbounds nuw i8, ptr %7, i64 96
  store i64 0, ptr %21, align 8
  %22 = getelementptr inbounds nuw i8, ptr %7, i64 104
  store i8 1, ptr %22, align 8
  %23 = getelementptr inbounds nuw i8, ptr %7, i64 128
  store ptr %1, ptr %23, align 8
  %24 = getelementptr inbounds nuw i8, ptr %7, i64 136
  store ptr null, ptr %24, align 8
  %25 = getelementptr inbounds nuw i8, ptr %1, i64 240
  %26 = load ptr, ptr %25, align 8
  %27 = tail call ptr @lcons(ptr noundef nonnull %7, ptr noundef %26) #12
  store ptr %27, ptr %25, align 8
  store ptr %7, ptr %3, align 8
  br label %28

28:                                               ; preds = %2, %MakePerTupleExprContext.exit
  %29 = phi ptr [ %7, %MakePerTupleExprContext.exit ], [ %4, %2 ]
  %30 = getelementptr inbounds nuw i8, ptr %29, i64 40
  %31 = load ptr, ptr %30, align 8
  store ptr %31, ptr @CurrentMemoryContext, align 8
  %32 = tail call ptr @ExecGetUpdatedCols(ptr noundef %0, ptr noundef nonnull %1)
  %33 = getelementptr inbounds nuw i8, ptr %0, i64 56
  %34 = load i8, ptr %33, align 8, !range !8, !noundef !9
  %35 = trunc nuw i8 %34 to i1
  br i1 %35, label %ExecGetExtraUpdatedCols.exit, label %36

36:                                               ; preds = %28
  tail call void @ExecInitGenerated(ptr noundef nonnull %0, ptr noundef nonnull %1, i32 noundef 2) #12
  br label %ExecGetExtraUpdatedCols.exit

ExecGetExtraUpdatedCols.exit:                     ; preds = %28, %36
  %37 = getelementptr inbounds nuw i8, ptr %0, i64 48
  %38 = load ptr, ptr %37, align 8
  %39 = tail call ptr @bms_union(ptr noundef %32, ptr noundef %38) #12
  store ptr %.pre, ptr @CurrentMemoryContext, align 8
  ret ptr %39
}